; Function Attrs: mustprogress uwtable
define void @_ZN5arrow2io16HadoopFileSystem19GetWorkingDirectoryEPNSt7__cxx1112basic_stringIcSt11char_traitsIcESaIcEEE(ptr noalias sret(%"class.arrow::Status") align 8 %agg.result, ptr nocapture noundef nonnull readonly align 8 dereferenceable(16) %this, ptr noundef %out) local_unnamed_addr #0 align 2 {
entry:
  %buffer.i = alloca [2048 x i8], align 16
  %impl_ = getelementptr inbounds i8, ptr %this, i64 8
  %0 = load ptr, ptr %impl_, align 8
  tail call void @llvm.experimental.noalias.scope.decl(metadata !292)
  call void @llvm.lifetime.start.p0(i64 2048, ptr nonnull %buffer.i)
  %1 = load ptr, ptr %0, align 8, !noalias !292
  %fs_.i = getelementptr inbounds i8, ptr %0, i64 112
  %2 = load ptr, ptr %fs_.i, align 8, !noalias !292
  %call.i = call noundef ptr @_ZN5arrow2io8internal11LibHdfsShim19GetWorkingDirectoryEP13hdfs_internalPcm(ptr noundef nonnull align 8 dereferenceable(312) %1, ptr noundef %2, ptr noundef nonnull %buffer.i, i64 noundef 2047), !noalias !292
  %cmp.i = icmp eq ptr %call.i, null
  br i1 %cmp.i, label %if.then.i, label %if.end.i

if.then.i:                                        ; preds = %entry
  %call2.i = tail call ptr @__errno_location() #23
  %3 = load i32, ptr %call2.i, align 4, !noalias !292
  call void @_ZN5arrow8internal15StatusFromErrnoIJRA32_KcEEENS_6StatusEiNS_10StatusCodeEDpOT_(ptr sret(%"class.arrow::Status") align 8 %agg.result, i32 noundef %3, i8 noundef signext 5, ptr noundef nonnull align 1 dereferenceable(32) @.str.21)
  br label %_ZN5arrow2io16HadoopFileSystem20HadoopFileSystemImpl19GetWorkingDirectoryEPNSt7__cxx1112basic_stringIcSt11char_traitsIcESaIcEEE.exit

if.end.i:                                         ; preds = %entry
  %call4.i = call noundef nonnull align 8 dereferenceable(32) ptr @_ZNSt7__cxx1112basic_stringIcSt11char_traitsIcESaIcEEaSEPKc(ptr noundef nonnull align 8 dereferenceable(32) %out, ptr noundef nonnull %buffer.i), !noalias !292
  store ptr null, ptr %agg.result, align 8, !alias.scope !295
  br label %_ZN5arrow2io16HadoopFileSystem20HadoopFileSystemImpl19GetWorkingDirectoryEPNSt7__cxx1112basic_stringIcSt11char_traitsIcESaIcEEE.exit

_ZN5arrow2io16HadoopFileSystem20HadoopFileSystemImpl19GetWorkingDirectoryEPNSt7__cxx1112basic_stringIcSt11char_traitsIcESaIcEEE.exit: ; preds = %if.then.i, %if.end.i
  call void @llvm.lifetime.end.p0(i64 2048, ptr nonnull %buffer.i)
  ret void
}